target datalayout = "e-m:e-p270:32:32-p271:32:32-p272:64:64-i64:64-i128:128-f80:128-n8:16:32:64-S128"
target triple = "x86_64-pc-linux-gnu"

%struct.XXH_NAMESPACEXXH128_hash_t = type { i64, i64 }

; Function Attrs: mustprogress nounwind uwtable
define internal { i64, i64 } @_ZL15XXH_mult64to128mm(i64 noundef %0, i64 noundef %1) #0 {
  %3 = alloca %struct.XXH_NAMESPACEXXH128_hash_t, align 8
  %4 = alloca i64, align 8
  %5 = alloca i64, align 8
  %6 = alloca i128, align 16
  store i64 %0, ptr %4, align 8, !tbaa !43
  store i64 %1, ptr %5, align 8, !tbaa !43
  call void @llvm.lifetime.start.p0(i64 16, ptr %6) #28
  %7 = load i64, ptr %4, align 8, !tbaa !43
  %8 = zext i64 %7 to i128
  %9 = load i64, ptr %5, align 8, !tbaa !43
  %10 = zext i64 %9 to i128
  %11 = mul i128 %8, %10
  store i128 %11, ptr %6, align 16, !tbaa !1037
  %12 = load i128, ptr %6, align 16, !tbaa !1037
  %13 = trunc i128 %12 to i64
  %14 = getelementptr inbounds nuw %struct.XXH_NAMESPACEXXH128_hash_t, ptr %3, i32 0, i32 0
  store i64 %13, ptr %14, align 8, !tbaa !1034
  %15 = load i128, ptr %6, align 16, !tbaa !1037
  %16 = lshr i128 %15, 64
  %17 = trunc i128 %16 to i64
  %18 = getelementptr inbounds nuw %struct.XXH_NAMESPACEXXH128_hash_t, ptr %3, i32 0, i32 1
  store i64 %17, ptr %18, align 8, !tbaa !1036
  call void @llvm.lifetime.end.p0(i64 16, ptr %6) #28
  %19 = load { i64, i64 }, ptr %3, align 8
  ret { i64, i64 } %19
}

; Function Attrs: mustprogress nounwind uwtable
define internal noundef i64 @_ZL10XXH_read64PKv(ptr noundef %0) #0 {
  %2 = alloca ptr, align 8
  store ptr %0, ptr %2, align 8, !tbaa !330
  %3 = load ptr, ptr %2, align 8, !tbaa !330
  %4 = load i64, ptr %3, align 1, !tbaa !43
  ret i64 %4
}

; Function Attrs: alwaysinline mustprogress nounwind willreturn memory(none) uwtable
define internal noundef i64 @_ZL14XXH_xorshift64mi(i64 noundef %0, i32 noundef %1) #23 {
  %3 = alloca i64, align 8
  %4 = alloca i32, align 4
  store i64 %0, ptr %3, align 8, !tbaa !43
  store i32 %1, ptr %4, align 4, !tbaa !8
  %5 = load i32, ptr %4, align 4, !tbaa !8
  %6 = icmp sle i32 0, %5
  br i1 %6, label %7, label %10

7:                                                ; preds = %2
  %8 = load i32, ptr %4, align 4, !tbaa !8
  %9 = icmp slt i32 %8, 64
  br label %10

10:                                               ; preds = %7, %2
  %11 = phi i1 [ false, %2 ], [ %9, %7 ]
  call void @llvm.assume(i1 %11)
  %12 = load i64, ptr %3, align 8, !tbaa !43
  %13 = load i64, ptr %3, align 8, !tbaa !43
  %14 = load i32, ptr %4, align 4, !tbaa !8
  %15 = zext i32 %14 to i64
  %16 = lshr i64 %13, %15
  %17 = xor i64 %12, %16
  ret i64 %17
}

; Function Attrs: mustprogress uwtable
define internal noundef i64 @_ZL18XXH3_mul128_fold64mm(i64 noundef %0, i64 noundef %1) #1 {
  %3 = alloca i64, align 8
  %4 = alloca i64, align 8
  %5 = alloca %struct.XXH_NAMESPACEXXH128_hash_t, align 8
  store i64 %0, ptr %3, align 8, !tbaa !43
  store i64 %1, ptr %4, align 8, !tbaa !43
  call void @llvm.lifetime.start.p0(i64 16, ptr %5) #28
  %6 = load i64, ptr %3, align 8, !tbaa !43
  %7 = load i64, ptr %4, align 8, !tbaa !43
  %8 = call { i64, i64 } @_ZL15XXH_mult64to128mm(i64 noundef %6, i64 noundef %7)
  %9 = getelementptr inbounds nuw { i64, i64 }, ptr %5, i32 0, i32 0
  %10 = extractvalue { i64, i64 } %8, 0
  store i64 %10, ptr %9, align 8
  %11 = getelementptr inbounds nuw { i64, i64 }, ptr %5, i32 0, i32 1
  %12 = extractvalue { i64, i64 } %8, 1
  store i64 %12, ptr %11, align 8
  %13 = getelementptr inbounds nuw %struct.XXH_NAMESPACEXXH128_hash_t, ptr %5, i32 0, i32 0
  %14 = load i64, ptr %13, align 8, !tbaa !1034
  %15 = getelementptr inbounds nuw %struct.XXH_NAMESPACEXXH128_hash_t, ptr %5, i32 0, i32 1
  %16 = load i64, ptr %15, align 8, !tbaa !1036
  %17 = xor i64 %14, %16
  call void @llvm.lifetime.end.p0(i64 16, ptr %5) #28
  ret i64 %17
}

; Function Attrs: alwaysinline mustprogress uwtable
define internal noundef i64 @_ZL12XXH_readLE64PKv(ptr noundef %0) #10 {
  %2 = alloca ptr, align 8
  store ptr %0, ptr %2, align 8, !tbaa !330
  %3 = load ptr, ptr %2, align 8, !tbaa !330
  %4 = call noundef i64 @_ZL10XXH_read64PKv(ptr noundef %3)
  ret i64 %4
}

; Function Attrs: mustprogress nounwind uwtable
define internal noundef i64 @_ZL14XXH3_avalanchem(i64 noundef %0) #0 {
  %2 = alloca i64, align 8
  store i64 %0, ptr %2, align 8, !tbaa !43
  %3 = load i64, ptr %2, align 8, !tbaa !43
  %4 = call noundef i64 @_ZL14XXH_xorshift64mi(i64 noundef %3, i32 noundef 37) #34
  store i64 %4, ptr %2, align 8, !tbaa !43
  %5 = load i64, ptr %2, align 8, !tbaa !43
  %6 = mul i64 %5, 1609587791953885689
  store i64 %6, ptr %2, align 8, !tbaa !43
  %7 = load i64, ptr %2, align 8, !tbaa !43
  %8 = call noundef i64 @_ZL14XXH_xorshift64mi(i64 noundef %7, i32 noundef 32) #34
  store i64 %8, ptr %2, align 8, !tbaa !43
  %9 = load i64, ptr %2, align 8, !tbaa !43
  ret i64 %9
}

; Function Attrs: alwaysinline mustprogress uwtable
define internal noundef i64 @_ZL11XXH3_mix16BPKhS0_m(ptr noalias noundef %0, ptr noalias noundef %1, i64 noundef %2) #10 {
  %4 = alloca ptr, align 8
  %5 = alloca ptr, align 8
  %6 = alloca i64, align 8
  %7 = alloca i64, align 8
  %8 = alloca i64, align 8
  store ptr %0, ptr %4, align 8, !tbaa !102
  store ptr %1, ptr %5, align 8, !tbaa !102
  store i64 %2, ptr %6, align 8, !tbaa !43
  call void @llvm.lifetime.start.p0(i64 8, ptr %7) #28
  %9 = load ptr, ptr %4, align 8, !tbaa !102
  %10 = call noundef i64 @_ZL12XXH_readLE64PKv(ptr noundef %9)
  store i64 %10, ptr %7, align 8, !tbaa !43
  call void @llvm.lifetime.start.p0(i64 8, ptr %8) #28
  %11 = load ptr, ptr %4, align 8, !tbaa !102
  %12 = getelementptr inbounds i8, ptr %11, i64 8
  %13 = call noundef i64 @_ZL12XXH_readLE64PKv(ptr noundef %12)
  store i64 %13, ptr %8, align 8, !tbaa !43
  %14 = load i64, ptr %7, align 8, !tbaa !43
  %15 = load ptr, ptr %5, align 8, !tbaa !102
  %16 = call noundef i64 @_ZL12XXH_readLE64PKv(ptr noundef %15)
  %17 = load i64, ptr %6, align 8, !tbaa !43
  %18 = add i64 %16, %17
  %19 = xor i64 %14, %18
  %20 = load i64, ptr %8, align 8, !tbaa !43
  %21 = load ptr, ptr %5, align 8, !tbaa !102
  %22 = getelementptr inbounds i8, ptr %21, i64 8
  %23 = call noundef i64 @_ZL12XXH_readLE64PKv(ptr noundef %22)
  %24 = load i64, ptr %6, align 8, !tbaa !43
  %25 = sub i64 %23, %24
  %26 = xor i64 %20, %25
  %27 = call noundef i64 @_ZL18XXH3_mul128_fold64mm(i64 noundef %19, i64 noundef %26)
  call void @llvm.lifetime.end.p0(i64 8, ptr %8) #28
  call void @llvm.lifetime.end.p0(i64 8, ptr %7) #28
  ret i64 %27
}

; Function Attrs: mustprogress noinline nounwind willreturn memory(read) uwtable
define internal noundef i64 @_ZL21XXH3_len_129to240_64bPKhmS0_mm(ptr noalias noundef %0, i64 noundef %1, ptr noalias noundef %2, i64 noundef %3, i64 noundef %4) #22 {
  %6 = alloca ptr, align 8
  %7 = alloca i64, align 8
  %8 = alloca ptr, align 8
  %9 = alloca i64, align 8
  %10 = alloca i64, align 8
  %11 = alloca i64, align 8
  %12 = alloca i64, align 8
  %13 = alloca i32, align 4
  %14 = alloca i32, align 4
  store ptr %0, ptr %6, align 8, !tbaa !102
  store i64 %1, ptr %7, align 8, !tbaa !43
  store ptr %2, ptr %8, align 8, !tbaa !102
  store i64 %3, ptr %9, align 8, !tbaa !43
  store i64 %4, ptr %10, align 8, !tbaa !43
  %15 = load i64, ptr %9, align 8, !tbaa !43
  %16 = icmp uge i64 %15, 136
  call void @llvm.assume(i1 %16)
  %17 = load i64, ptr %7, align 8, !tbaa !43
  %18 = icmp ult i64 128, %17
  br i1 %18, label %19, label %22

19:                                               ; preds = %5
  %20 = load i64, ptr %7, align 8, !tbaa !43
  %21 = icmp ule i64 %20, 240
  br label %22

22:                                               ; preds = %19, %5
  %23 = phi i1 [ false, %5 ], [ %21, %19 ]
  call void @llvm.assume(i1 %23)
  call void @llvm.lifetime.start.p0(i64 8, ptr %11) #28
  %24 = load i64, ptr %7, align 8, !tbaa !43
  %25 = mul i64 %24, -7046029288634856825
  store i64 %25, ptr %11, align 8, !tbaa !43
  call void @llvm.lifetime.start.p0(i64 8, ptr %12) #28
  call void @llvm.lifetime.start.p0(i64 4, ptr %13) #28
  %26 = load i64, ptr %7, align 8, !tbaa !43
  %27 = trunc i64 %26 to i32
  %28 = udiv i32 %27, 16
  store i32 %28, ptr %13, align 4, !tbaa !8
  call void @llvm.lifetime.start.p0(i64 4, ptr %14) #28
  %29 = load i64, ptr %7, align 8, !tbaa !43
  %30 = icmp ult i64 128, %29
  br i1 %30, label %31, label %34

31:                                               ; preds = %22
  %32 = load i64, ptr %7, align 8, !tbaa !43
  %33 = icmp ule i64 %32, 240
  br label %34

34:                                               ; preds = %31, %22
  %35 = phi i1 [ false, %22 ], [ %33, %31 ]
  call void @llvm.assume(i1 %35)
  store i32 0, ptr %14, align 4, !tbaa !8
  br label %36

36:                                               ; preds = %54, %34
  %37 = load i32, ptr %14, align 4, !tbaa !8
  %38 = icmp ult i32 %37, 8
  br i1 %38, label %39, label %57

39:                                               ; preds = %36
  %40 = load ptr, ptr %6, align 8, !tbaa !102
  %41 = load i32, ptr %14, align 4, !tbaa !8
  %42 = mul i32 16, %41
  %43 = zext i32 %42 to i64
  %44 = getelementptr inbounds nuw i8, ptr %40, i64 %43
  %45 = load ptr, ptr %8, align 8, !tbaa !102
  %46 = load i32, ptr %14, align 4, !tbaa !8
  %47 = mul i32 16, %46
  %48 = zext i32 %47 to i64
  %49 = getelementptr inbounds nuw i8, ptr %45, i64 %48
  %50 = load i64, ptr %10, align 8, !tbaa !43
  %51 = call noundef i64 @_ZL11XXH3_mix16BPKhS0_m(ptr noundef %44, ptr noundef %49, i64 noundef %50)
  %52 = load i64, ptr %11, align 8, !tbaa !43
  %53 = add i64 %52, %51
  store i64 %53, ptr %11, align 8, !tbaa !43
  br label %54

54:                                               ; preds = %39
  %55 = load i32, ptr %14, align 4, !tbaa !8
  %56 = add i32 %55, 1
  store i32 %56, ptr %14, align 4, !tbaa !8
  br label %36, !llvm.loop !1031

57:                                               ; preds = %36
  %58 = load ptr, ptr %6, align 8, !tbaa !102
  %59 = load i64, ptr %7, align 8, !tbaa !43
  %60 = getelementptr inbounds nuw i8, ptr %58, i64 %59
  %61 = getelementptr inbounds i8, ptr %60, i64 -16
  %62 = load ptr, ptr %8, align 8, !tbaa !102
  %63 = getelementptr inbounds i8, ptr %62, i64 136
  %64 = getelementptr inbounds i8, ptr %63, i64 -17
  %65 = load i64, ptr %10, align 8, !tbaa !43
  %66 = call noundef i64 @_ZL11XXH3_mix16BPKhS0_m(ptr noundef %61, ptr noundef %64, i64 noundef %65)
  store i64 %66, ptr %12, align 8, !tbaa !43
  %67 = load i32, ptr %13, align 4, !tbaa !8
  %68 = icmp uge i32 %67, 8
  call void @llvm.assume(i1 %68)
  %69 = load i64, ptr %11, align 8, !tbaa !43
  %70 = call noundef i64 @_ZL14XXH3_avalanchem(i64 noundef %69)
  store i64 %70, ptr %11, align 8, !tbaa !43
  store i32 8, ptr %14, align 4, !tbaa !8
  br label %71

71:                                               ; preds = %94, %57
  %72 = load i32, ptr %14, align 4, !tbaa !8
  %73 = load i32, ptr %13, align 4, !tbaa !8
  %74 = icmp ult i32 %72, %73
  br i1 %74, label %75, label %97

75:                                               ; preds = %71
  %76 = load i64, ptr %11, align 8, !tbaa !43
  %77 = call i64 asm "", "=r,0,~{dirflag},~{fpsr},~{flags}"(i64 %76) #33, !srcloc !1032
  store i64 %77, ptr %11, align 8, !tbaa !43
  %78 = load ptr, ptr %6, align 8, !tbaa !102
  %79 = load i32, ptr %14, align 4, !tbaa !8
  %80 = mul i32 16, %79
  %81 = zext i32 %80 to i64
  %82 = getelementptr inbounds nuw i8, ptr %78, i64 %81
  %83 = load ptr, ptr %8, align 8, !tbaa !102
  %84 = load i32, ptr %14, align 4, !tbaa !8
  %85 = sub i32 %84, 8
  %86 = mul i32 16, %85
  %87 = zext i32 %86 to i64
  %88 = getelementptr inbounds nuw i8, ptr %83, i64 %87
  %89 = getelementptr inbounds i8, ptr %88, i64 3
  %90 = load i64, ptr %10, align 8, !tbaa !43
  %91 = call noundef i64 @_ZL11XXH3_mix16BPKhS0_m(ptr noundef %82, ptr noundef %89, i64 noundef %90)
  %92 = load i64, ptr %12, align 8, !tbaa !43
  %93 = add i64 %92, %91
  store i64 %93, ptr %12, align 8, !tbaa !43
  br label %94

94:                                               ; preds = %75
  %95 = load i32, ptr %14, align 4, !tbaa !8
  %96 = add i32 %95, 1
  store i32 %96, ptr %14, align 4, !tbaa !8
  br label %71, !llvm.loop !1033

97:                                               ; preds = %71
  %98 = load i64, ptr %11, align 8, !tbaa !43
  %99 = load i64, ptr %12, align 8, !tbaa !43
  %100 = add i64 %98, %99
  %101 = call noundef i64 @_ZL14XXH3_avalanchem(i64 noundef %100)
  call void @llvm.lifetime.end.p0(i64 4, ptr %14) #28
  call void @llvm.lifetime.end.p0(i64 4, ptr %13) #28
  call void @llvm.lifetime.end.p0(i64 8, ptr %12) #28
  call void @llvm.lifetime.end.p0(i64 8, ptr %11) #28
  ret i64 %101
}