; Function Attrs: mustprogress nofree noinline nounwind willreturn memory(argmem: read) uwtable
define internal fastcc noundef i64 @_ZL21XXH3_len_129to240_64bPKhmS0_mm(ptr noalias noundef readonly captures(none) %0, i64 noundef range(i64 129, 241) %1) unnamed_addr #20 {
  %3 = mul i64 %1, -7046029288634856825
  %4 = trunc nuw nsw i64 %1 to i32
  br label %5

5:                                                ; preds = %2, %5
  %indvars.iv = phi i64 [ 0, %2 ], [ %indvars.iv.next, %5 ]
  %.0321 = phi i64 [ %3, %2 ], [ %19, %5 ]
  %6 = shl nuw nsw i64 %indvars.iv, 4
  %7 = getelementptr inbounds nuw i8, ptr %0, i64 %6
  %8 = getelementptr inbounds nuw i8, ptr @_ZZN5arrow8internal17ComputeStringHashILm0EEEmPKvlE12kXxh3Secrets, i64 %6
  %.val45 = load i64, ptr %7, align 1, !tbaa !129
  %9 = getelementptr inbounds nuw i8, ptr %7, i64 8
  %.val44 = load i64, ptr %9, align 1, !tbaa !129
  %.val43 = load i64, ptr %8, align 16, !tbaa !129
  %10 = xor i64 %.val43, %.val45
  %11 = getelementptr inbounds nuw i8, ptr %8, i64 8
  %.val42 = load i64, ptr %11, align 8, !tbaa !129
  %12 = xor i64 %.val42, %.val44
  %13 = zext i64 %10 to i128
  %14 = zext i64 %12 to i128
  %15 = mul nuw i128 %14, %13
  %16 = lshr i128 %15, 64
  %17 = xor i128 %16, %15
  %18 = trunc i128 %17 to i64
  %19 = add i64 %.0321, %18
  %indvars.iv.next = add nuw nsw i64 %indvars.iv, 1
  %exitcond.not = icmp eq i64 %indvars.iv.next, 8
  br i1 %exitcond.not, label %20, label %5, !llvm.loop !2231

20:                                               ; preds = %5
  %21 = lshr i32 %4, 4
  %22 = getelementptr inbounds nuw i8, ptr %0, i64 %1
  %23 = getelementptr inbounds i8, ptr %22, i64 -16
  %.val41 = load i64, ptr %23, align 1, !tbaa !129
  %24 = getelementptr inbounds i8, ptr %22, i64 -8
  %.val40 = load i64, ptr %24, align 1, !tbaa !129
  %25 = xor i64 %.val41, 7684692108833950092
  %26 = xor i64 %.val40, -7511969205704787629
  %27 = zext i64 %25 to i128
  %28 = zext i64 %26 to i128
  %29 = mul nuw i128 %28, %27
  %30 = lshr i128 %29, 64
  %31 = xor i128 %30, %29
  %32 = trunc i128 %31 to i64
  %33 = lshr i64 %19, 37
  %34 = xor i64 %33, %19
  %35 = mul i64 %34, 1609587791953885689
  %36 = lshr i64 %35, 32
  %37 = xor i64 %36, %35
  %.not = icmp eq i32 %21, 8
  br i1 %.not, label %._crit_edge, label %.lr.ph.preheader

.lr.ph.preheader:                                 ; preds = %20
  %wide.trip.count = zext nneg i32 %21 to i64
  br label %.lr.ph

.lr.ph:                                           ; preds = %.lr.ph.preheader, %.lr.ph
  %indvars.iv10 = phi i64 [ 8, %.lr.ph.preheader ], [ %indvars.iv.next11, %.lr.ph ]
  %.1334 = phi i64 [ %37, %.lr.ph.preheader ], [ %38, %.lr.ph ]
  %.0343 = phi i64 [ %32, %.lr.ph.preheader ], [ %53, %.lr.ph ]
  %38 = tail call i64 asm "", "=r,0,~{dirflag},~{fpsr},~{flags}"(i64 %.1334) #31, !srcloc !2232
  %39 = shl nuw nsw i64 %indvars.iv10, 4
  %40 = getelementptr inbounds nuw i8, ptr %0, i64 %39
  %41 = getelementptr i8, ptr @_ZZN5arrow8internal17ComputeStringHashILm0EEEmPKvlE12kXxh3Secrets, i64 %39
  %42 = getelementptr i8, ptr %41, i64 -125
  %.val37 = load i64, ptr %40, align 1, !tbaa !129
  %43 = getelementptr inbounds nuw i8, ptr %40, i64 8
  %.val36 = load i64, ptr %43, align 1, !tbaa !129
  %.val35 = load i64, ptr %42, align 1, !tbaa !129
  %44 = xor i64 %.val35, %.val37
  %45 = getelementptr i8, ptr %41, i64 -117
  %.val = load i64, ptr %45, align 1, !tbaa !129
  %46 = xor i64 %.val, %.val36
  %47 = zext i64 %44 to i128
  %48 = zext i64 %46 to i128
  %49 = mul nuw i128 %48, %47
  %50 = lshr i128 %49, 64
  %51 = xor i128 %50, %49
  %52 = trunc i128 %51 to i64
  %53 = add i64 %.0343, %52
  %indvars.iv.next11 = add nuw nsw i64 %indvars.iv10, 1
  %exitcond13.not = icmp eq i64 %indvars.iv.next11, %wide.trip.count
  br i1 %exitcond13.not, label %._crit_edge, label %.lr.ph, !llvm.loop !2233

._crit_edge:                                      ; preds = %.lr.ph, %20
  %.034.lcssa = phi i64 [ %32, %20 ], [ %53, %.lr.ph ]
  %.133.lcssa = phi i64 [ %37, %20 ], [ %38, %.lr.ph ]
  %54 = add i64 %.133.lcssa, %.034.lcssa
  %55 = lshr i64 %54, 37
  %56 = xor i64 %55, %54
  %57 = mul i64 %56, 1609587791953885689
  %58 = lshr i64 %57, 32
  %59 = xor i64 %58, %57
  ret i64 %59
}